; Function Attrs: mustprogress uwtable
define noundef zeroext i1 @_ZN2cv18GStreamingCompiled4pullEOSt6vectorINS_4util7variantIJPNS2_8optionalINS_3MatEEEPNS4_INS_4RMatEEEPNS4_INS_10MediaFrameEEEPNS4_INS_7Scalar_IdEEEENS_6detail6OptRefINSI_9VectorRefEEENSJ_INSI_9OpaqueRefEEEEEESaISO_EE(ptr noundef nonnull readonly align 8 captures(none) dereferenceable(16) %0, ptr noundef nonnull align 8 dereferenceable(24) %1) local_unnamed_addr #3 align 2 {
  %3 = load ptr, ptr %0, align 8, !tbaa !31
  %4 = getelementptr inbounds nuw i8, ptr %3, i64 48
  %5 = load ptr, ptr %4, align 8, !tbaa !3
  %6 = load ptr, ptr %5, align 8, !tbaa !8
  %7 = getelementptr inbounds nuw i8, ptr %6, i64 40
  %8 = load ptr, ptr %7, align 8
  %9 = tail call noundef zeroext i1 %8(ptr noundef nonnull align 8 dereferenceable(137) %5, ptr noundef nonnull align 8 dereferenceable(24) %1)
  ret i1 %9
}